target datalayout = "e-m:e-p270:32:32-p271:32:32-p272:64:64-i64:64-i128:128-f80:128-n8:16:32:64-S128"
target triple = "x86_64-pc-linux-gnu"

%"class.cv::Size_" = type { i32, i32 }

; Function Attrs: mustprogress nounwind uwtable
define internal void @_ZN2cvL15copyMaskGenericEPKhmS1_mPhmNS_5Size_IiEEPv(ptr noundef %0, i64 noundef %1, ptr noundef %2, i64 noundef %3, ptr noundef %4, i64 noundef %5, i64 %6, ptr noundef %7) #4 {
  %9 = alloca %"class.cv::Size_", align 4
  %10 = alloca ptr, align 8
  %11 = alloca i64, align 8
  %12 = alloca ptr, align 8
  %13 = alloca i64, align 8
  %14 = alloca ptr, align 8
  %15 = alloca i64, align 8
  %16 = alloca ptr, align 8
  %17 = alloca i64, align 8
  %18 = alloca i64, align 8
  %19 = alloca ptr, align 8
  %20 = alloca ptr, align 8
  %21 = alloca i32, align 4
  store i64 %6, ptr %9, align 4
  store ptr %0, ptr %10, align 8
  store i64 %1, ptr %11, align 8
  store ptr %2, ptr %12, align 8
  store i64 %3, ptr %13, align 8
  store ptr %4, ptr %14, align 8
  store i64 %5, ptr %15, align 8
  store ptr %7, ptr %16, align 8
  %22 = load ptr, ptr %16, align 8
  %23 = load i64, ptr %22, align 8
  store i64 %23, ptr %18, align 8
  br label %24

24:                                               ; preds = %72, %8
  %25 = getelementptr inbounds %"class.cv::Size_", ptr %9, i32 0, i32 1
  %26 = load i32, ptr %25, align 4
  %27 = add nsw i32 %26, -1
  store i32 %27, ptr %25, align 4
  %28 = icmp ne i32 %26, 0
  br i1 %28, label %29, label %82

29:                                               ; preds = %24
  %30 = load ptr, ptr %10, align 8
  store ptr %30, ptr %19, align 8
  %31 = load ptr, ptr %14, align 8
  store ptr %31, ptr %20, align 8
  store i32 0, ptr %21, align 4
  br label %32

32:                                               ; preds = %62, %29
  %33 = load i32, ptr %21, align 4
  %34 = getelementptr inbounds %"class.cv::Size_", ptr %9, i32 0, i32 0
  %35 = load i32, ptr %34, align 4
  %36 = icmp slt i32 %33, %35
  br i1 %36, label %37, label %71

37:                                               ; preds = %32
  %38 = load ptr, ptr %12, align 8
  %39 = load i32, ptr %21, align 4
  %40 = sext i32 %39 to i64
  %41 = getelementptr inbounds i8, ptr %38, i64 %40
  %42 = load i8, ptr %41, align 1
  %43 = icmp ne i8 %42, 0
  br i1 %43, label %45, label %44

44:                                               ; preds = %37
  br label %62

45:                                               ; preds = %37
  store i64 0, ptr %17, align 8
  br label %46

46:                                               ; preds = %58, %45
  %47 = load i64, ptr %17, align 8
  %48 = load i64, ptr %18, align 8
  %49 = icmp ult i64 %47, %48
  br i1 %49, label %50, label %61

50:                                               ; preds = %46
  %51 = load ptr, ptr %19, align 8
  %52 = load i64, ptr %17, align 8
  %53 = getelementptr inbounds i8, ptr %51, i64 %52
  %54 = load i8, ptr %53, align 1
  %55 = load ptr, ptr %20, align 8
  %56 = load i64, ptr %17, align 8
  %57 = getelementptr inbounds i8, ptr %55, i64 %56
  store i8 %54, ptr %57, align 1
  br label %58

58:                                               ; preds = %50
  %59 = load i64, ptr %17, align 8
  %60 = add i64 %59, 1
  store i64 %60, ptr %17, align 8
  br label %46, !llvm.loop !23

61:                                               ; preds = %46
  br label %62

62:                                               ; preds = %61, %44
  %63 = load i32, ptr %21, align 4
  %64 = add nsw i32 %63, 1
  store i32 %64, ptr %21, align 4
  %65 = load i64, ptr %18, align 8
  %66 = load ptr, ptr %19, align 8
  %67 = getelementptr inbounds i8, ptr %66, i64 %65
  store ptr %67, ptr %19, align 8
  %68 = load i64, ptr %18, align 8
  %69 = load ptr, ptr %20, align 8
  %70 = getelementptr inbounds i8, ptr %69, i64 %68
  store ptr %70, ptr %20, align 8
  br label %32, !llvm.loop !24

71:                                               ; preds = %32
  br label %72

72:                                               ; preds = %71
  %73 = load i64, ptr %13, align 8
  %74 = load ptr, ptr %12, align 8
  %75 = getelementptr inbounds i8, ptr %74, i64 %73
  store ptr %75, ptr %12, align 8
  %76 = load i64, ptr %11, align 8
  %77 = load ptr, ptr %10, align 8
  %78 = getelementptr inbounds i8, ptr %77, i64 %76
  store ptr %78, ptr %10, align 8
  %79 = load i64, ptr %15, align 8
  %80 = load ptr, ptr %14, align 8
  %81 = getelementptr inbounds i8, ptr %80, i64 %79
  store ptr %81, ptr %14, align 8
  br label %24, !llvm.loop !25

82:                                               ; preds = %24
  ret void
}