; Function Attrs: mustprogress nofree norecurse nosync nounwind memory(readwrite, inaccessiblemem: none) uwtable
define internal void @_ZN2cvL15copyMaskGenericEPKhmS1_mPhmNS_5Size_IiEEPv(ptr nocapture noundef readonly %0, i64 noundef %1, ptr nocapture noundef readonly %2, i64 noundef %3, ptr nocapture noundef writeonly %4, i64 noundef %5, i64 %6, ptr nocapture noundef readonly %7) #6 {
  %9 = load i64, ptr %7, align 8
  %.fr51 = freeze i64 %9
  %.not36 = icmp ult i64 %6, 4294967296
  %.sroa.0.0.extract.trunc = trunc i64 %6 to i32
  %10 = icmp slt i32 %.sroa.0.0.extract.trunc, 1
  %or.cond.not58 = or i1 %.not36, %10
  %.not52 = icmp eq i64 %.fr51, 0
  %or.cond57 = or i1 %or.cond.not58, %.not52
  br i1 %or.cond57, label %._crit_edge43, label %.preheader30.us.us.preheader

.preheader30.us.us.preheader:                     ; preds = %8
  %.sroa.2.0.extract.shift = lshr i64 %6, 32
  %.sroa.2.0.extract.trunc = trunc nuw i64 %.sroa.2.0.extract.shift to i32
  %wide.trip.count = and i64 %6, 2147483647
  br label %.preheader30.us.us

.preheader30.us.us:                               ; preds = %.preheader30.us.us.preheader, %._crit_edge.split.us.us.us
  %.in = phi i32 [ %11, %._crit_edge.split.us.us.us ], [ %.sroa.2.0.extract.trunc, %.preheader30.us.us.preheader ]
  %.02641.us.us = phi ptr [ %22, %._crit_edge.split.us.us.us ], [ %0, %.preheader30.us.us.preheader ]
  %.02739.us.us = phi ptr [ %21, %._crit_edge.split.us.us.us ], [ %2, %.preheader30.us.us.preheader ]
  %.02837.us.us = phi ptr [ %23, %._crit_edge.split.us.us.us ], [ %4, %.preheader30.us.us.preheader ]
  %11 = add nsw i32 %.in, -1
  br label %12

12:                                               ; preds = %..loopexit_crit_edge.us.us.us, %.preheader30.us.us
  %indvars.iv = phi i64 [ %indvars.iv.next, %..loopexit_crit_edge.us.us.us ], [ 0, %.preheader30.us.us ]
  %.02333.us.us.us = phi ptr [ %20, %..loopexit_crit_edge.us.us.us ], [ %.02837.us.us, %.preheader30.us.us ]
  %.02432.us.us.us = phi ptr [ %19, %..loopexit_crit_edge.us.us.us ], [ %.02641.us.us, %.preheader30.us.us ]
  %13 = getelementptr inbounds i8, ptr %.02739.us.us, i64 %indvars.iv
  %14 = load i8, ptr %13, align 1
  %.not29.us.us.us = icmp eq i8 %14, 0
  br i1 %.not29.us.us.us, label %..loopexit_crit_edge.us.us.us, label %.preheader.us.us.us

.preheader.us.us.us:                              ; preds = %12, %.preheader.us.us.us
  %.02531.us.us.us = phi i64 [ %18, %.preheader.us.us.us ], [ 0, %12 ]
  %15 = getelementptr inbounds i8, ptr %.02432.us.us.us, i64 %.02531.us.us.us
  %16 = load i8, ptr %15, align 1
  %17 = getelementptr inbounds i8, ptr %.02333.us.us.us, i64 %.02531.us.us.us
  store i8 %16, ptr %17, align 1
  %18 = add nuw i64 %.02531.us.us.us, 1
  %exitcond.not = icmp eq i64 %18, %.fr51
  br i1 %exitcond.not, label %..loopexit_crit_edge.us.us.us, label %.preheader.us.us.us, !llvm.loop !43

..loopexit_crit_edge.us.us.us:                    ; preds = %.preheader.us.us.us, %12
  %indvars.iv.next = add nuw nsw i64 %indvars.iv, 1
  %19 = getelementptr i8, ptr %.02432.us.us.us, i64 %.fr51
  %20 = getelementptr i8, ptr %.02333.us.us.us, i64 %.fr51
  %exitcond56.not = icmp eq i64 %indvars.iv.next, %wide.trip.count
  br i1 %exitcond56.not, label %._crit_edge.split.us.us.us, label %12, !llvm.loop !44

._crit_edge.split.us.us.us:                       ; preds = %..loopexit_crit_edge.us.us.us
  %21 = getelementptr inbounds i8, ptr %.02739.us.us, i64 %3
  %22 = getelementptr i8, ptr %.02641.us.us, i64 %1
  %23 = getelementptr i8, ptr %.02837.us.us, i64 %5
  %.not.us.us = icmp eq i32 %11, 0
  br i1 %.not.us.us, label %._crit_edge43, label %.preheader30.us.us, !llvm.loop !45

._crit_edge43:                                    ; preds = %._crit_edge.split.us.us.us, %8
  ret void
}